target datalayout = "e-m:e-p270:32:32-p271:32:32-p272:64:64-i64:64-i128:128-f80:128-n8:16:32:64-S128"
target triple = "x86_64-pc-linux-gnu"

@.str = private unnamed_addr constant [23 x i8] c"invalid UTF-8 sequence\00", align 1

; Function Attrs: nounwind uwtable
define dso_local i32 @decode_utf8(ptr noundef %0, ptr noundef %1) #0 {
  %3 = alloca i32, align 4
  %4 = alloca ptr, align 8
  %5 = alloca ptr, align 8
  %6 = alloca ptr, align 8
  %7 = alloca i32, align 4
  %8 = alloca i32, align 4
  %9 = alloca i32, align 4
  store ptr %0, ptr %4, align 8, !tbaa !15
  store ptr %1, ptr %5, align 8, !tbaa !7
  %10 = load ptr, ptr %5, align 8, !tbaa !7
  %11 = load i8, ptr %10, align 1, !tbaa !14
  %12 = zext i8 %11 to i32
  %13 = icmp slt i32 %12, 128
  br i1 %13, label %14, label %21

14:                                               ; preds = %2
  %15 = load ptr, ptr %5, align 8, !tbaa !7
  %16 = getelementptr inbounds i8, ptr %15, i64 1
  %17 = load ptr, ptr %4, align 8, !tbaa !15
  store ptr %16, ptr %17, align 8, !tbaa !7
  %18 = load ptr, ptr %5, align 8, !tbaa !7
  %19 = load i8, ptr %18, align 1, !tbaa !14
  %20 = sext i8 %19 to i32
  store i32 %20, ptr %3, align 4
  br label %94

21:                                               ; preds = %2
  call void @llvm.lifetime.start.p0(i64 8, ptr %6) #3
  %22 = load ptr, ptr %5, align 8, !tbaa !7
  store ptr %22, ptr %6, align 8, !tbaa !7
  call void @llvm.lifetime.start.p0(i64 4, ptr %7) #3
  call void @llvm.lifetime.start.p0(i64 4, ptr %8) #3
  %23 = load ptr, ptr %5, align 8, !tbaa !7
  %24 = load i8, ptr %23, align 1, !tbaa !14
  %25 = zext i8 %24 to i32
  %26 = icmp sge i32 %25, 240
  br i1 %26, label %27, label %32

27:                                               ; preds = %21
  store i32 4, ptr %7, align 4, !tbaa !12
  %28 = load ptr, ptr %5, align 8, !tbaa !7
  %29 = load i8, ptr %28, align 1, !tbaa !14
  %30 = sext i8 %29 to i32
  %31 = and i32 %30, 7
  store i32 %31, ptr %8, align 4, !tbaa !12
  br label %56

32:                                               ; preds = %21
  %33 = load ptr, ptr %5, align 8, !tbaa !7
  %34 = load i8, ptr %33, align 1, !tbaa !14
  %35 = zext i8 %34 to i32
  %36 = icmp sge i32 %35, 224
  br i1 %36, label %37, label %42

37:                                               ; preds = %32
  store i32 3, ptr %7, align 4, !tbaa !12
  %38 = load ptr, ptr %5, align 8, !tbaa !7
  %39 = load i8, ptr %38, align 1, !tbaa !14
  %40 = sext i8 %39 to i32
  %41 = and i32 %40, 15
  store i32 %41, ptr %8, align 4, !tbaa !12
  br label %55

42:                                               ; preds = %32
  %43 = load ptr, ptr %5, align 8, !tbaa !7
  %44 = load i8, ptr %43, align 1, !tbaa !14
  %45 = zext i8 %44 to i32
  %46 = icmp sge i32 %45, 192
  br i1 %46, label %47, label %52

47:                                               ; preds = %42
  store i32 2, ptr %7, align 4, !tbaa !12
  %48 = load ptr, ptr %5, align 8, !tbaa !7
  %49 = load i8, ptr %48, align 1, !tbaa !14
  %50 = sext i8 %49 to i32
  %51 = and i32 %50, 31
  store i32 %51, ptr %8, align 4, !tbaa !12
  br label %54

52:                                               ; preds = %42
  %53 = load ptr, ptr %6, align 8, !tbaa !7
  call void (ptr, ptr, ...) @error_at(ptr noundef %53, ptr noundef @.str) #4
  unreachable

54:                                               ; preds = %47
  br label %55

55:                                               ; preds = %54, %37
  br label %56

56:                                               ; preds = %55, %27
  call void @llvm.lifetime.start.p0(i64 4, ptr %9) #3
  store i32 1, ptr %9, align 4, !tbaa !12
  br label %57

57:                                               ; preds = %84, %56
  %58 = load i32, ptr %9, align 4, !tbaa !12
  %59 = load i32, ptr %7, align 4, !tbaa !12
  %60 = icmp slt i32 %58, %59
  br i1 %60, label %62, label %61

61:                                               ; preds = %57
  call void @llvm.lifetime.end.p0(i64 4, ptr %9) #3
  br label %87

62:                                               ; preds = %57
  %63 = load ptr, ptr %5, align 8, !tbaa !7
  %64 = load i32, ptr %9, align 4, !tbaa !12
  %65 = sext i32 %64 to i64
  %66 = getelementptr inbounds i8, ptr %63, i64 %65
  %67 = load i8, ptr %66, align 1, !tbaa !14
  %68 = zext i8 %67 to i32
  %69 = ashr i32 %68, 6
  %70 = icmp ne i32 %69, 2
  br i1 %70, label %71, label %73

71:                                               ; preds = %62
  %72 = load ptr, ptr %6, align 8, !tbaa !7
  call void (ptr, ptr, ...) @error_at(ptr noundef %72, ptr noundef @.str) #4
  unreachable

73:                                               ; preds = %62
  %74 = load i32, ptr %8, align 4, !tbaa !12
  %75 = shl i32 %74, 6
  %76 = load ptr, ptr %5, align 8, !tbaa !7
  %77 = load i32, ptr %9, align 4, !tbaa !12
  %78 = sext i32 %77 to i64
  %79 = getelementptr inbounds i8, ptr %76, i64 %78
  %80 = load i8, ptr %79, align 1, !tbaa !14
  %81 = sext i8 %80 to i32
  %82 = and i32 %81, 63
  %83 = or i32 %75, %82
  store i32 %83, ptr %8, align 4, !tbaa !12
  br label %84

84:                                               ; preds = %73
  %85 = load i32, ptr %9, align 4, !tbaa !12
  %86 = add nsw i32 %85, 1
  store i32 %86, ptr %9, align 4, !tbaa !12
  br label %57, !llvm.loop !17

87:                                               ; preds = %61
  %88 = load ptr, ptr %5, align 8, !tbaa !7
  %89 = load i32, ptr %7, align 4, !tbaa !12
  %90 = sext i32 %89 to i64
  %91 = getelementptr inbounds i8, ptr %88, i64 %90
  %92 = load ptr, ptr %4, align 8, !tbaa !15
  store ptr %91, ptr %92, align 8, !tbaa !7
  %93 = load i32, ptr %8, align 4, !tbaa !12
  store i32 %93, ptr %3, align 4
  call void @llvm.lifetime.end.p0(i64 4, ptr %8) #3
  call void @llvm.lifetime.end.p0(i64 4, ptr %7) #3
  call void @llvm.lifetime.end.p0(i64 8, ptr %6) #3
  br label %94

94:                                               ; preds = %87, %14
  %95 = load i32, ptr %3, align 4
  ret i32 %95
}