; Function Attrs: nounwind uwtable
define dso_local i32 @decode_utf8(ptr noundef writeonly captures(none) %0, ptr noundef %1) local_unnamed_addr #1 {
  %3 = load i8, ptr %1, align 1, !tbaa !7
  %4 = icmp sgt i8 %3, -1
  br i1 %4, label %5, label %9

5:                                                ; preds = %2
  %6 = getelementptr inbounds nuw i8, ptr %1, i64 1
  store ptr %6, ptr %0, align 8, !tbaa !10
  %7 = load i8, ptr %1, align 1, !tbaa !7
  %8 = sext i8 %7 to i32
  br label %29

9:                                                ; preds = %2
  %10 = icmp samesign ugt i8 %3, -17
  br i1 %10, label %16, label %11

11:                                               ; preds = %9
  %12 = icmp samesign ugt i8 %3, -33
  br i1 %12, label %16, label %13

13:                                               ; preds = %11
  %14 = icmp samesign ugt i8 %3, -65
  br i1 %14, label %16, label %15

15:                                               ; preds = %13
  tail call void (ptr, ptr, ...) @error_at(ptr noundef nonnull %1, ptr noundef nonnull @.str) #4
  unreachable

16:                                               ; preds = %13, %11, %9
  %.sink = phi i8 [ 7, %9 ], [ 15, %11 ], [ 31, %13 ]
  %.026 = phi i64 [ 4, %9 ], [ 3, %11 ], [ 2, %13 ]
  %17 = and i8 %3, %.sink
  %.025 = zext nneg i8 %17 to i32
  br label %20

18:                                               ; preds = %24
  %19 = getelementptr inbounds nuw i8, ptr %1, i64 %.026
  store ptr %19, ptr %0, align 8, !tbaa !10
  br label %29

20:                                               ; preds = %16, %24
  %indvars.iv = phi i64 [ 1, %16 ], [ %indvars.iv.next, %24 ]
  %.130 = phi i32 [ %.025, %16 ], [ %28, %24 ]
  %21 = getelementptr inbounds nuw i8, ptr %1, i64 %indvars.iv
  %22 = load i8, ptr %21, align 1, !tbaa !7
  %.not = icmp slt i8 %22, -64
  br i1 %.not, label %24, label %23

23:                                               ; preds = %20
  tail call void (ptr, ptr, ...) @error_at(ptr noundef nonnull %1, ptr noundef nonnull @.str) #4
  unreachable

24:                                               ; preds = %20
  %25 = shl i32 %.130, 6
  %26 = and i8 %22, 63
  %27 = zext nneg i8 %26 to i32
  %28 = or disjoint i32 %25, %27
  %indvars.iv.next = add nuw nsw i64 %indvars.iv, 1
  %exitcond.not = icmp eq i64 %indvars.iv.next, %.026
  br i1 %exitcond.not, label %18, label %20, !llvm.loop !13

29:                                               ; preds = %18, %5
  %.027 = phi i32 [ %8, %5 ], [ %28, %18 ]
  ret i32 %.027
}